target datalayout = "e-m:e-p270:32:32-p271:32:32-p272:64:64-i64:64-i128:128-f80:128-n8:16:32:64-S128"
target triple = "x86_64-pc-linux-gnu"

%struct.H5O_loc_t = type { ptr, i64, i8 }
%struct.H5A_t = type { %struct.H5O_shared_t, %struct.H5O_loc_t, i8, %struct.H5G_name_t, ptr }
%struct.H5O_shared_t = type { i32, ptr, i32, %union.anon }
%union.anon = type { %struct.H5O_mesg_loc_t }
%struct.H5O_mesg_loc_t = type { i32, i64 }
%struct.H5G_name_t = type { ptr, ptr, i32 }
%struct.H5A_shared_t = type { i8, ptr, i32, ptr, i64, ptr, i64, ptr, i64, i32, i32 }

; Function Attrs: nounwind uwtable
define internal i32 @H5A__attr_cmp_corder_dec(ptr noundef %0, ptr noundef %1) #0 {
  %3 = alloca ptr, align 8
  %4 = alloca ptr, align 8
  %5 = alloca i32, align 4
  store ptr %0, ptr %3, align 8
  store ptr %1, ptr %4, align 8
  store i32 0, ptr %5, align 4
  %6 = load ptr, ptr %3, align 8
  %7 = load ptr, ptr %6, align 8
  %8 = getelementptr inbounds %struct.H5A_t, ptr %7, i32 0, i32 4
  %9 = load ptr, ptr %8, align 8
  %10 = getelementptr inbounds %struct.H5A_shared_t, ptr %9, i32 0, i32 9
  %11 = load i32, ptr %10, align 8
  %12 = load ptr, ptr %4, align 8
  %13 = load ptr, ptr %12, align 8
  %14 = getelementptr inbounds %struct.H5A_t, ptr %13, i32 0, i32 4
  %15 = load ptr, ptr %14, align 8
  %16 = getelementptr inbounds %struct.H5A_shared_t, ptr %15, i32 0, i32 9
  %17 = load i32, ptr %16, align 8
  %18 = icmp ult i32 %11, %17
  br i1 %18, label %19, label %20

19:                                               ; preds = %2
  store i32 1, ptr %5, align 4
  br label %37

20:                                               ; preds = %2
  %21 = load ptr, ptr %3, align 8
  %22 = load ptr, ptr %21, align 8
  %23 = getelementptr inbounds %struct.H5A_t, ptr %22, i32 0, i32 4
  %24 = load ptr, ptr %23, align 8
  %25 = getelementptr inbounds %struct.H5A_shared_t, ptr %24, i32 0, i32 9
  %26 = load i32, ptr %25, align 8
  %27 = load ptr, ptr %4, align 8
  %28 = load ptr, ptr %27, align 8
  %29 = getelementptr inbounds %struct.H5A_t, ptr %28, i32 0, i32 4
  %30 = load ptr, ptr %29, align 8
  %31 = getelementptr inbounds %struct.H5A_shared_t, ptr %30, i32 0, i32 9
  %32 = load i32, ptr %31, align 8
  %33 = icmp ugt i32 %26, %32
  br i1 %33, label %34, label %35

34:                                               ; preds = %20
  store i32 -1, ptr %5, align 4
  br label %36

35:                                               ; preds = %20
  store i32 0, ptr %5, align 4
  br label %36

36:                                               ; preds = %35, %34
  br label %37

37:                                               ; preds = %36, %19
  %38 = load i32, ptr %5, align 4
  ret i32 %38
}