; Function Attrs: mustprogress nofree norecurse nosync nounwind willreturn memory(read, inaccessiblemem: none) uwtable
define internal range(i32 -1, 2) i32 @H5A__attr_cmp_corder_dec(ptr nocapture noundef readonly %0, ptr nocapture noundef readonly %1) #8 {
  %3 = load ptr, ptr %0, align 8
  %4 = getelementptr inbounds i8, ptr %3, i64 96
  %5 = load ptr, ptr %4, align 8
  %6 = getelementptr inbounds i8, ptr %5, i64 72
  %7 = load i32, ptr %6, align 8
  %8 = load ptr, ptr %1, align 8
  %9 = getelementptr inbounds i8, ptr %8, i64 96
  %10 = load ptr, ptr %9, align 8
  %11 = getelementptr inbounds i8, ptr %10, i64 72
  %12 = load i32, ptr %11, align 8
  %13 = icmp ult i32 %7, %12
  %14 = icmp ugt i32 %7, %12
  %. = sext i1 %14 to i32
  %.0 = select i1 %13, i32 1, i32 %.
  ret i32 %.0
}